target datalayout = "e-m:e-p270:32:32-p271:32:32-p272:64:64-i64:64-i128:128-f80:128-n8:16:32:64-S128"
target triple = "x86_64-pc-linux-gnu"

@codec_type = hidden global ptr null, align 8
@ett_h245_Application = internal global i32 0, align 4
@.str.2977 = private unnamed_addr constant [10 x i8] c"<unknown>\00", align 1

; Function Attrs: null_pointer_is_valid sspstrong uwtable
define internal i32 @dissect_h245_Application(ptr noundef %0, i32 noundef %1, ptr noundef %2, ptr noundef %3, i32 noundef %4) #1 {
  %6 = alloca ptr, align 8
  %7 = alloca i32, align 4
  %8 = alloca ptr, align 8
  %9 = alloca ptr, align 8
  %10 = alloca i32, align 4
  %11 = alloca i32, align 4
  store ptr %0, ptr %6, align 8
  store i32 %1, ptr %7, align 4
  store ptr %2, ptr %8, align 8
  store ptr %3, ptr %9, align 8
  store i32 %4, ptr %10, align 4
  call void @llvm.lifetime.start.p0(i64 4, ptr %11) #12
  %12 = load ptr, ptr %6, align 8
  %13 = load i32, ptr %7, align 4
  %14 = load ptr, ptr %8, align 8
  %15 = load ptr, ptr %9, align 8
  %16 = load i32, ptr %10, align 4
  %17 = load i32, ptr @ett_h245_Application, align 4
  %18 = call i32 @dissect_per_choice(ptr noundef %12, i32 noundef %13, ptr noundef %14, ptr noundef %15, i32 noundef %16, i32 noundef %17, ptr noundef @Application_choice, ptr noundef %11)
  store i32 %18, ptr %7, align 4
  %19 = load i32, ptr %11, align 4
  %20 = call ptr @val_to_str_const(i32 noundef %19, ptr noundef @h245_Application_vals, ptr noundef @.str.2977)
  store ptr %20, ptr @codec_type, align 8
  %21 = load i32, ptr %7, align 4
  call void @llvm.lifetime.end.p0(i64 4, ptr %11) #12
  ret i32 %21
}