; Function Attrs: null_pointer_is_valid sspstrong uwtable
define internal i32 @dissect_h245_Application(ptr noundef %0, i32 noundef %1, ptr noundef %2, ptr noundef %3, i32 noundef %4) #1 {
  %6 = alloca i32, align 4
  call void @llvm.lifetime.start.p0(i64 4, ptr nonnull %6) #13
  %7 = load i32, ptr @ett_h245_Application, align 4
  %8 = call i32 @dissect_per_choice(ptr noundef %0, i32 noundef %1, ptr noundef %2, ptr noundef %3, i32 noundef %4, i32 noundef %7, ptr noundef nonnull @Application_choice, ptr noundef nonnull %6)
  %9 = load i32, ptr %6, align 4
  %10 = call ptr @val_to_str_const(i32 noundef %9, ptr noundef nonnull @h245_Application_vals, ptr noundef nonnull @.str.2977)
  store ptr %10, ptr @codec_type, align 8
  call void @llvm.lifetime.end.p0(i64 4, ptr nonnull %6) #13
  ret i32 %8
}